target datalayout = "e-m:e-p270:32:32-p271:32:32-p272:64:64-i64:64-i128:128-f80:128-n8:16:32:64-S128"
target triple = "x86_64-pc-linux-gnu"

@.str = private unnamed_addr constant [6 x i8] c"CLASS\00", align 1
@.str.10 = private unnamed_addr constant [8 x i8] c"PALETTE\00", align 1

; Function Attrs: nounwind uwtable
define i32 @H5IMis_palette(i64 noundef %0, ptr noundef %1) #0 {
  %3 = alloca i32, align 4
  %4 = alloca i64, align 8
  %5 = alloca ptr, align 8
  %6 = alloca i64, align 8
  %7 = alloca i32, align 4
  %8 = alloca i64, align 8
  %9 = alloca i64, align 8
  %10 = alloca ptr, align 8
  %11 = alloca i64, align 8
  %12 = alloca i32, align 4
  %13 = alloca i32, align 4
  store i64 %0, ptr %4, align 8, !tbaa !3
  store ptr %1, ptr %5, align 8, !tbaa !7
  call void @llvm.lifetime.start.p0(i64 8, ptr %6) #7
  call void @llvm.lifetime.start.p0(i64 4, ptr %7) #7
  call void @llvm.lifetime.start.p0(i64 8, ptr %8) #7
  call void @llvm.lifetime.start.p0(i64 8, ptr %9) #7
  store i64 -1, ptr %9, align 8, !tbaa !3
  call void @llvm.lifetime.start.p0(i64 8, ptr %10) #7
  call void @llvm.lifetime.start.p0(i64 8, ptr %11) #7
  call void @llvm.lifetime.start.p0(i64 4, ptr %12) #7
  %14 = load ptr, ptr %5, align 8, !tbaa !7
  %15 = icmp eq ptr %14, null
  br i1 %15, label %16, label %17

16:                                               ; preds = %2
  store i32 -1, ptr %3, align 4
  store i32 1, ptr %13, align 4
  br label %111

17:                                               ; preds = %2
  store i32 -1, ptr %12, align 4, !tbaa !15
  %18 = load i64, ptr %4, align 8, !tbaa !3
  %19 = load ptr, ptr %5, align 8, !tbaa !7
  %20 = call i64 @H5Dopen2(i64 noundef %18, ptr noundef %19, i64 noundef 0)
  store i64 %20, ptr %6, align 8, !tbaa !3
  %21 = icmp slt i64 %20, 0
  br i1 %21, label %22, label %23

22:                                               ; preds = %17
  store i32 -1, ptr %3, align 4
  store i32 1, ptr %13, align 4
  br label %111

23:                                               ; preds = %17
  %24 = load i64, ptr %6, align 8, !tbaa !3
  %25 = call i32 @H5Aexists(i64 noundef %24, ptr noundef @.str)
  store i32 %25, ptr %7, align 4, !tbaa !15
  %26 = icmp slt i32 %25, 0
  br i1 %26, label %27, label %28

27:                                               ; preds = %23
  br label %108

28:                                               ; preds = %23
  %29 = load i32, ptr %7, align 4, !tbaa !15
  %30 = icmp eq i32 %29, 0
  br i1 %30, label %31, label %34

31:                                               ; preds = %28
  %32 = load i64, ptr %6, align 8, !tbaa !3
  %33 = call i32 @H5Dclose(i64 noundef %32)
  store i32 0, ptr %3, align 4
  store i32 1, ptr %13, align 4
  br label %111

34:                                               ; preds = %28
  %35 = load i64, ptr %6, align 8, !tbaa !3
  %36 = call i64 @H5Aopen(i64 noundef %35, ptr noundef @.str, i64 noundef 0)
  store i64 %36, ptr %9, align 8, !tbaa !3
  %37 = icmp slt i64 %36, 0
  br i1 %37, label %38, label %39

38:                                               ; preds = %34
  br label %108

39:                                               ; preds = %34
  %40 = load i64, ptr %9, align 8, !tbaa !3
  %41 = call i64 @H5Aget_type(i64 noundef %40)
  store i64 %41, ptr %8, align 8, !tbaa !3
  %42 = icmp slt i64 %41, 0
  br i1 %42, label %43, label %44

43:                                               ; preds = %39
  br label %108

44:                                               ; preds = %39
  %45 = load i64, ptr %8, align 8, !tbaa !3
  %46 = call i32 @H5Tget_class(i64 noundef %45)
  %47 = icmp ne i32 3, %46
  br i1 %47, label %48, label %49

48:                                               ; preds = %44
  br label %108

49:                                               ; preds = %44
  %50 = load i64, ptr %8, align 8, !tbaa !3
  %51 = call i32 @H5Tget_strpad(i64 noundef %50)
  %52 = icmp ne i32 0, %51
  br i1 %52, label %53, label %54

53:                                               ; preds = %49
  br label %108

54:                                               ; preds = %49
  %55 = load i64, ptr %9, align 8, !tbaa !3
  %56 = call i64 @H5Aget_storage_size(i64 noundef %55)
  store i64 %56, ptr %11, align 8, !tbaa !3
  %57 = icmp eq i64 %56, 0
  br i1 %57, label %58, label %59

58:                                               ; preds = %54
  br label %108

59:                                               ; preds = %54
  %60 = load i64, ptr %11, align 8, !tbaa !3
  %61 = mul i64 %60, 1
  %62 = add i64 %61, 1
  %63 = call noalias ptr @malloc(i64 noundef %62) #9
  store ptr %63, ptr %10, align 8, !tbaa !7
  %64 = load ptr, ptr %10, align 8, !tbaa !7
  %65 = icmp eq ptr %64, null
  br i1 %65, label %66, label %67

66:                                               ; preds = %59
  br label %108

67:                                               ; preds = %59
  %68 = load i64, ptr %9, align 8, !tbaa !3
  %69 = load i64, ptr %8, align 8, !tbaa !3
  %70 = load ptr, ptr %10, align 8, !tbaa !7
  %71 = call i32 @H5Aread(i64 noundef %68, i64 noundef %69, ptr noundef %70)
  %72 = icmp slt i32 %71, 0
  br i1 %72, label %73, label %74

73:                                               ; preds = %67
  br label %108

74:                                               ; preds = %67
  %75 = load ptr, ptr %10, align 8, !tbaa !7
  %76 = load ptr, ptr %10, align 8, !tbaa !7
  %77 = call i64 @strlen(ptr noundef %76) #8
  %78 = icmp ult i64 7, %77
  br i1 %78, label %79, label %80

79:                                               ; preds = %74
  br label %83

80:                                               ; preds = %74
  %81 = load ptr, ptr %10, align 8, !tbaa !7
  %82 = call i64 @strlen(ptr noundef %81) #8
  br label %83

83:                                               ; preds = %80, %79
  %84 = phi i64 [ 7, %79 ], [ %82, %80 ]
  %85 = call i32 @strncmp(ptr noundef %75, ptr noundef @.str.10, i64 noundef %84) #8
  %86 = icmp eq i32 %85, 0
  br i1 %86, label %87, label %88

87:                                               ; preds = %83
  store i32 1, ptr %12, align 4, !tbaa !15
  br label %89

88:                                               ; preds = %83
  store i32 0, ptr %12, align 4, !tbaa !15
  br label %89

89:                                               ; preds = %88, %87
  %90 = load ptr, ptr %10, align 8, !tbaa !7
  call void @free(ptr noundef %90) #7
  %91 = load i64, ptr %8, align 8, !tbaa !3
  %92 = call i32 @H5Tclose(i64 noundef %91)
  %93 = icmp slt i32 %92, 0
  br i1 %93, label %94, label %95

94:                                               ; preds = %89
  br label %108

95:                                               ; preds = %89
  %96 = load i64, ptr %9, align 8, !tbaa !3
  %97 = call i32 @H5Aclose(i64 noundef %96)
  %98 = icmp slt i32 %97, 0
  br i1 %98, label %99, label %100

99:                                               ; preds = %95
  br label %108

100:                                              ; preds = %95
  br label %101

101:                                              ; preds = %100
  %102 = load i64, ptr %6, align 8, !tbaa !3
  %103 = call i32 @H5Dclose(i64 noundef %102)
  %104 = icmp slt i32 %103, 0
  br i1 %104, label %105, label %106

105:                                              ; preds = %101
  store i32 -1, ptr %3, align 4
  store i32 1, ptr %13, align 4
  br label %111

106:                                              ; preds = %101
  %107 = load i32, ptr %12, align 4, !tbaa !15
  store i32 %107, ptr %3, align 4
  store i32 1, ptr %13, align 4
  br label %111

108:                                              ; preds = %99, %94, %73, %66, %58, %53, %48, %43, %38, %27
  %109 = load i64, ptr %6, align 8, !tbaa !3
  %110 = call i32 @H5Dclose(i64 noundef %109)
  store i32 -1, ptr %3, align 4
  store i32 1, ptr %13, align 4
  br label %111

111:                                              ; preds = %108, %106, %105, %31, %22, %16
  call void @llvm.lifetime.end.p0(i64 4, ptr %12) #7
  call void @llvm.lifetime.end.p0(i64 8, ptr %11) #7
  call void @llvm.lifetime.end.p0(i64 8, ptr %10) #7
  call void @llvm.lifetime.end.p0(i64 8, ptr %9) #7
  call void @llvm.lifetime.end.p0(i64 8, ptr %8) #7
  call void @llvm.lifetime.end.p0(i64 4, ptr %7) #7
  call void @llvm.lifetime.end.p0(i64 8, ptr %6) #7
  %112 = load i32, ptr %3, align 4
  ret i32 %112
}